(dp0
S'BATCH1_XPLGlucose_R2'
p1
((lp2
I3
aI3
aI2
aI2
aI1
aI2
aI4
aI4
aI1
aI2
aI2
aI4
aI5
aI2
aI2
aI2
aI2
aI2
aI5
aI3
aI2
aI1
aI3
aI3
aI4
aI3
aI2
aI1
aI5
aI2
aI3
aI2
aI2
aI2
aI5
aI2
aI1
aI0
aI5
aI1
aI1
aI3
aI2
aI3
aI2
aI0
aI4
aI1
aI1
aI3
aI0
aI1
aI2
aI1
aI2
aI0
aI3
aI2
aI1
aI1
aI2
aI0
aI3
aI0
aI3
aI5
aI1
aI1
aI1
aI2
aI3
aI2
aI1
aI1
aI0
aI1
aI2
aI1
aI0
aI2
aI5
aI1
aI1
aI1
aI1
aI3
aI1
aI1
aI0
aI1
aI2
aI0
aI2
aI1
aI0
aI3
aI2
aI4
aI2
aI2
aI4
aI4
aI4
aI0
aI4
aI0
aI0
aI1
aI2
aI2
aI0
aI1
aI4
aI3
aI1
aI3
aI0
aI2
aI0
aI1
aI1
aI2
aI1
aI2
aI2
aI2
aI1
aI1
aI2
aI5
aI1
aI0
aI1
aI3
aI2
aI1
aI2
aI2
aI4
aI4
aI2
aI3
aI4
aI4
aI2
aI2
aI3
aI1
aI1
aI3
aI4
aI5
aI1
aI1
aI1
aI0
aI0
aI1
aI1
aI1
aI4
aI0
aI1
aI2
aI0
aI2
aI2
aI1
aI1
aI17
a(lp3
I154
aI155
aI169
aI152
aI163
aI144
aI155
aI151
aI151
aI143
aI156
aI150
aI147
aI146
aI149
aI144
aI134
aI122
aI144
aI140
aI139
aI129
aI131
aI133
aI126
aI147
aI132
aI131
aI119
aI121
aI117
aI128
aI113
aI134
aI110
aI107
aI117
aI112
aI108
aI106
aI106
aI105
aI101
aI112
aI87
aI101
aI88
aI91
aI83
aI83
aI92
aI86
aI76
aI82
aI72
aI72
aI72
aI71
aI85
aI63
aI79
aI66
aI61
aI66
aI63
aI68
aI69
aI58
aI60
aI56
aI55
aI62
aI49
aI44
aI45
aI41
aI49
aI39
aI40
aI51
aI46
aI52
aI52
aI50
aI51
aI47
aI43
aI41
aI47
aI42
aI33
aI38
aI28
aI29
aI32
aI36
aI32
aI37
aI30
aI26
aI25
aI28
aI24
aI23
aI25
aI22
aI20
aI27
aI18
aI26
aI31
aI29
aI23
aI24
aI16
aI22
aI23
aI16
aI25
aI19
aI24
aI14
aI25
aI15
aI18
aI16
aI13
aI18
aI17
aI14
aI22
aI20
aI20
aI18
aI18
aI17
aI16
aI14
aI13
aI17
aI11
aI15
aI15
aI16
aI17
aI15
aI15
aI16
aI13
aI15
aI20
aI15
aI12
aI18
aI16
aI15
aI18
aI18
aI14
aI13
aI13
aI17
aI19
aI17
aI16
aI20
aI19
aI16
aI16
aI21
atp4
sS'BATCH1_XPNoGlucose_R1'
p5
((lp6
I0
aI0
aI0
aI0
aI0
aI1
aI0
aI0
aI1
aI0
aI1
aI1
aI0
aI0
aI0
aI1
aI1
aI0
aI0
aI0
aI0
aI0
aI0
aI0
aI0
aI0
aI0
aI1
aI0
aI0
aI0
aI0
aI0
aI0
aI0
aI0
aI0
aI0
aI0
aI0
aI0
aI0
aI1
aI1
aI0
aI0
aI0
aI0
aI0
aI0
aI0
aI0
aI0
aI0
aI0
aI0
aI1
aI1
aI0
aI2
aI1
aI1
aI1
aI1
aI1
aI1
aI0
aI1
aI1
aI0
aI0
aI0
aI0
aI0
aI0
aI0
aI0
aI0
aI0
aI0
aI0
aI0
aI0
aI0
aI0
aI0
aI0
aI0
aI0
aI0
aI0
aI0
aI0
aI0
aI0
aI0
aI0
aI0
aI0
aI0
aI0
aI0
aI0
aI0
aI0
aI0
aI0
aI0
aI0
aI0
aI0
aI0
aI0
aI0
aI0
aI0
aI0
aI0
aI0
aI0
aI0
aI0
aI0
aI0
aI0
aI0
aI0
aI0
aI0
aI0
aI0
aI0
aI0
aI0
aI0
aI0
aI0
aI1
aI1
aI1
aI0
aI0
aI0
aI1
aI1
aI1
aI0
aI0
aI0
aI0
aI0
aI0
aI1
aI1
aI0
aI0
aI1
aI1
aI0
aI1
aI1
aI1
aI1
aI0
aI0
aI0
aI0
aI0
aI0
aI0
aI0
aI0
aI0
aI0
aI0
aI0
aI0
aI0
aI0
aI0
aI0
aI0
aI0
aI0
aI0
aI0
aI0
aI0
aI0
aI0
aI0
aI0
aI0
aI0
aI0
aI0
aI0
aI0
aI1
aI1
aI1
aI1
aI0
aI0
aI0
aI0
aI0
aI0
aI0
aI0
aI0
aI0
aI0
aI0
aI0
aI0
aI0
aI0
aI0
aI0
aI0
aI0
aI0
aI0
aI0
aI0
aI0
aI0
aI0
aI0
aI0
aI0
aI0
aI0
aI0
aI0
aI0
aI0
aI0
aI0
aI0
aI0
aI0
aI0
aI0
aI15
a(lp7
I59
aI65
aI63
aI63
aI60
aI58
aI51
aI64
aI53
aI52
aI39
aI53
aI50
aI41
aI44
aI43
aI46
aI37
aI37
aI28
aI32
aI32
aI35
aI39
aI35
aI39
aI32
aI30
aI38
aI35
aI37
aI27
aI33
aI23
aI30
aI30
aI29
aI27
aI27
aI27
aI24
aI28
aI19
aI29
aI24
aI18
aI19
aI35
aI32
aI24
aI28
aI23
aI26
aI22
aI23
aI20
aI21
aI20
aI24
aI23
aI21
aI22
aI20
aI24
aI19
aI20
aI20
aI16
aI13
aI21
aI10
aI10
aI10
aI8
aI9
aI12
aI12
aI16
aI13
aI14
aI8
aI6
aI8
aI4
aI5
aI4
aI8
aI11
aI7
aI9
aI8
aI8
aI8
aI8
aI7
aI8
aI9
aI8
aI8
aI10
aI10
aI10
aI13
aI7
aI12
aI20
aI31
aI30
aI32
aI23
aI26
aI25
aI23
aI22
aI16
aI18
aI10
aI17
aI20
aI19
aI19
aI23
aI21
aI24
aI22
aI18
aI13
aI22
aI19
aI14
aI13
aI16
aI13
aI18
aI12
aI11
aI10
aI10
aI8
aI13
aI10
aI13
aI9
aI11
aI10
aI13
aI9
aI14
aI8
aI10
aI12
aI12
aI11
aI12
aI8
aI15
aI14
aI14
aI14
aI12
aI13
aI15
aI11
aI13
aI12
aI15
aI10
aI12
aI9
aI16
aI12
aI12
aI10
aI8
aI13
aI5
aI7
aI5
aI7
aI7
aI5
aI7
aI6
aI5
aI7
aI4
aI7
aI8
aI6
aI5
aI3
aI4
aI6
aI7
aI6
aI7
aI9
aI6
aI8
aI10
aI5
aI4
aI7
aI5
aI6
aI6
aI5
aI7
aI8
aI6
aI4
aI4
aI6
aI4
aI5
aI6
aI5
aI5
aI6
aI4
aI4
aI7
aI3
aI5
aI4
aI5
aI6
aI3
aI6
aI6
aI3
aI4
aI5
aI12
aI4
aI5
aI4
aI6
aI4
aI5
aI8
aI1
aI0
aI1
aI4
aI3
atp8
sS'BATCH1_XPNoGlucose_R2'
p9
((lp10
I4
aI4
aI4
aI4
aI4
aI12
aI5
aI5
aI3
aI2
aI2
aI3
aI10
a(lp11
I9
aI9
aI6
aI3
aI3
aI4
aI4
aI1
aI0
aI1
aI1
aI2
aI0
atp12
sS'BATCH2_XPControl_R2'
p13
((lp14
I8
aI9
aI9
aI9
aI8
aI8
aI7
aI11
aI10
aI11
aI15
aI13
aI14
aI11
aI10
aI9
aI13
aI11
aI8
aI6
aI5
aI5
aI5
aI4
aI4
aI3
aI6
aI6
aI7
aI7
aI7
aI7
aI9
aI8
aI6
aI5
aI10
aI6
aI9
aI7
aI7
aI9
aI10
aI7
aI3
aI8
aI7
aI6
aI7
aI5
aI4
aI5
aI8
aI8
aI7
aI10
aI9
aI8
aI8
aI9
aI7
aI13
aI11
aI11
aI10
aI11
aI12
aI10
aI11
aI11
aI12
aI10
aI11
aI10
aI14
aI13
aI9
aI5
aI8
aI8
aI7
aI10
aI8
aI8
aI9
aI11
aI11
aI6
aI9
aI8
aI11
aI13
aI9
aI9
aI10
aI10
aI11
aI13
aI8
aI13
aI8
aI9
aI8
aI8
aI8
aI9
aI10
aI10
aI11
aI9
aI9
aI9
aI9
aI7
aI7
aI11
aI11
aI8
aI8
aI6
aI9
aI8
aI10
aI9
aI11
aI14
aI9
aI13
aI13
aI16
aI12
aI13
aI13
aI11
aI10
aI8
aI11
aI13
aI13
aI14
aI13
aI14
aI16
aI15
aI15
a(lp15
I12
aI7
aI11
aI12
aI11
aI12
aI13
aI12
aI13
aI10
aI13
aI10
aI9
aI9
aI13
aI11
aI8
aI6
aI6
aI3
aI7
aI3
aI4
aI9
aI9
aI8
aI6
aI5
aI5
aI5
aI10
aI9
aI3
aI5
aI8
aI9
aI11
aI7
aI8
aI9
aI8
aI8
aI5
aI8
aI3
aI10
aI6
aI5
aI6
aI11
aI6
aI14
aI12
aI8
aI7
aI10
aI10
aI8
aI6
aI8
aI10
aI8
aI6
aI11
aI8
aI8
aI15
aI8
aI11
aI7
aI8
aI5
aI8
aI8
aI10
aI13
aI12
aI10
aI9
aI9
aI6
aI7
aI11
aI11
aI5
aI7
aI12
aI11
aI12
aI7
aI10
aI18
aI8
aI5
aI10
aI9
aI5
aI8
aI5
aI11
aI11
aI16
aI9
aI8
aI9
aI15
aI8
aI11
aI12
aI12
aI7
aI8
aI14
aI10
aI9
aI13
aI15
aI6
aI13
aI11
aI8
aI19
aI14
aI15
aI11
aI14
aI10
aI14
aI9
aI9
aI16
aI10
aI6
aI15
aI10
aI8
aI5
aI11
aI8
aI15
aI12
aI12
aI9
aI8
aI13
atp16
sS'BATCH1_XPWithGlucose_R4'
p17
((lp18
I2
aI2
aI1
aI2
aI1
aI1
aI2
aI1
aI1
aI2
aI1
aI2
aI1
aI2
aI2
aI2
aI3
aI3
aI3
aI3
aI2
aI4
aI5
aI3
aI2
aI4
aI4
aI4
aI3
aI4
aI3
aI4
aI4
aI4
aI3
aI2
aI2
aI3
aI3
aI4
aI3
aI4
aI3
aI3
aI3
aI4
aI4
aI3
aI4
aI3
aI3
aI4
aI4
aI4
aI3
aI3
aI3
aI3
aI3
aI3
aI3
aI3
aI3
aI2
aI3
aI3
aI3
aI3
aI3
aI2
aI3
aI3
aI3
aI3
aI3
aI4
aI3
aI3
aI3
aI4
aI2
aI3
aI3
aI4
aI4
aI4
aI4
aI4
aI4
aI4
aI4
aI4
aI3
aI4
aI3
aI3
aI4
aI3
aI3
aI3
aI3
aI3
aI3
aI4
aI3
aI3
aI2
aI4
aI5
aI5
aI3
aI2
aI3
aI3
aI4
aI2
aI3
aI3
aI2
aI2
aI3
aI2
aI3
aI4
aI5
aI4
aI4
aI4
aI3
aI3
aI2
aI2
aI3
aI5
aI3
aI5
aI4
aI5
aI3
aI5
aI4
aI7
aI5
aI6
aI5
aI4
aI5
aI5
aI6
aI5
aI9
aI7
aI6
aI7
aI4
aI5
aI5
aI5
aI3
aI4
aI5
aI4
aI5
aI5
aI3
aI2
aI3
aI4
aI4
aI6
aI3
aI5
aI5
aI3
aI3
aI1
aI2
aI3
aI3
aI3
aI1
aI1
aI2
aI2
aI2
aI1
aI2
aI1
aI4
aI3
aI3
aI2
aI2
aI2
aI3
aI2
aI3
aI2
aI1
aI1
aI0
aI1
aI0
aI3
aI3
aI2
aI3
aI1
aI2
aI3
aI2
aI2
aI2
aI3
aI2
aI2
aI1
aI2
aI3
aI4
aI4
aI3
aI4
aI3
aI4
aI5
aI4
aI4
aI5
aI3
aI3
aI3
aI5
aI4
aI4
aI4
aI4
aI5
aI3
aI3
aI4
aI4
aI3
aI3
aI3
aI2
aI3
aI4
aI4
aI4
aI3
aI3
aI3
aI3
aI4
aI2
aI3
aI2
aI3
aI1
aI1
aI0
aI1
aI1
aI2
aI2
aI2
aI2
aI3
aI3
aI2
aI2
aI3
aI4
aI2
aI2
aI2
aI2
aI1
aI4
aI1
aI1
aI1
aI1
aI1
aI2
aI1
aI2
aI1
aI2
aI2
aI1
aI1
aI2
aI1
aI1
aI1
aI1
aI1
aI1
aI1
aI3
aI2
aI1
aI1
aI1
aI1
aI1
aI1
aI1
aI1
aI1
aI1
aI1
aI0
aI1
aI0
aI0
aI0
aI0
aI1
aI0
aI0
aI0
aI0
aI2
aI2
aI2
aI2
aI2
aI2
aI2
aI1
aI2
aI1
aI0
aI0
aI0
aI1
aI1
aI0
aI0
aI0
aI2
aI1
aI1
aI1
aI1
aI21
a(lp19
I59
aI57
aI49
aI50
aI53
aI47
aI41
aI40
aI53
aI48
aI44
aI45
aI52
aI53
aI47
aI53
aI45
aI53
aI55
aI49
aI52
aI46
aI45
aI48
aI55
aI38
aI39
aI38
aI41
aI41
aI44
aI49
aI36
aI46
aI39
aI47
aI40
aI31
aI43
aI57
aI49
aI35
aI45
aI50
aI47
aI51
aI52
aI42
aI50
aI49
aI45
aI50
aI45
aI45
aI54
aI49
aI56
aI48
aI48
aI45
aI49
aI53
aI48
aI44
aI44
aI46
aI40
aI41
aI38
aI46
aI42
aI45
aI53
aI47
aI45
aI48
aI51
aI38
aI39
aI40
aI40
aI40
aI45
aI45
aI44
aI42
aI43
aI45
aI42
aI37
aI40
aI44
aI47
aI38
aI36
aI38
aI32
aI33
aI32
aI26
aI34
aI35
aI29
aI42
aI33
aI36
aI35
aI35
aI34
aI36
aI38
aI34
aI28
aI29
aI33
aI30
aI27
aI25
aI27
aI28
aI25
aI24
aI29
aI23
aI26
aI30
aI32
aI26
aI29
aI22
aI20
aI28
aI24
aI26
aI27
aI26
aI22
aI30
aI31
aI31
aI27
aI23
aI29
aI24
aI25
aI25
aI28
aI28
aI25
aI24
aI28
aI27
aI20
aI22
aI23
aI21
aI20
aI18
aI18
aI22
aI18
aI19
aI20
aI19
aI17
aI22
aI24
aI21
aI24
aI22
aI29
aI21
aI21
aI20
aI20
aI20
aI25
aI20
aI23
aI18
aI21
aI23
aI20
aI21
aI21
aI19
aI15
aI21
aI26
aI24
aI20
aI22
aI19
aI22
aI24
aI22
aI16
aI18
aI15
aI21
aI23
aI20
aI20
aI25
aI20
aI14
aI18
aI17
aI23
aI26
aI21
aI18
aI19
aI19
aI23
aI18
aI22
aI23
aI23
aI17
aI27
aI21
aI24
aI18
aI21
aI15
aI25
aI20
aI18
aI15
aI17
aI16
aI17
aI14
aI17
aI25
aI21
aI17
aI17
aI18
aI19
aI19
aI17
aI20
aI20
aI19
aI20
aI22
aI20
aI19
aI23
aI14
aI20
aI17
aI17
aI19
aI20
aI17
aI19
aI16
aI16
aI18
aI14
aI22
aI20
aI24
aI26
aI20
aI19
aI23
aI17
aI17
aI19
aI18
aI16
aI19
aI17
aI20
aI18
aI17
aI19
aI12
aI13
aI20
aI18
aI17
aI18
aI23
aI25
aI14
aI16
aI14
aI18
aI15
aI18
aI16
aI15
aI16
aI18
aI18
aI14
aI22
aI14
aI15
aI15
aI17
aI12
aI17
aI16
aI16
aI11
aI23
aI17
aI18
aI19
aI20
aI25
aI22
aI11
aI21
aI15
aI19
aI19
aI16
aI14
aI21
aI18
aI15
aI17
aI14
aI19
aI13
aI11
aI14
aI17
aI15
aI11
aI16
aI16
aI16
aI14
aI19
aI16
aI17
aI13
aI10
aI9
aI13
aI1
atp20
sS'BATCH2_XPControl_R1'
p21
((lp22
I7
aI14
aI14
aI12
aI17
aI9
aI11
aI18
aI15
aI11
aI14
aI14
aI16
aI17
aI14
aI14
aI12
aI15
aI16
aI13
aI14
aI13
aI19
aI17
aI15
aI11
aI15
aI13
aI16
aI13
aI16
aI13
aI15
aI18
aI15
aI14
aI15
aI21
aI16
aI16
aI16
aI17
aI17
aI21
aI22
aI14
aI19
aI14
aI13
aI19
aI16
aI15
aI15
aI11
aI16
aI17
aI18
aI14
aI16
aI17
aI17
aI18
aI17
aI16
aI17
aI10
aI15
aI14
aI12
aI15
aI9
aI17
aI13
aI13
aI16
aI17
aI16
aI11
aI14
aI10
aI13
aI16
aI16
aI16
aI11
aI17
aI15
aI20
aI17
aI12
aI14
aI10
aI7
aI10
aI13
aI18
aI13
aI16
aI13
aI14
aI11
aI13
aI12
aI12
aI12
aI12
aI16
aI13
aI15
aI15
aI9
aI11
aI14
aI13
aI9
aI12
aI15
aI20
aI15
aI17
aI15
aI10
aI16
aI18
aI17
aI13
aI11
aI14
aI15
aI12
aI14
aI16
aI13
aI13
aI11
aI13
aI14
aI9
aI11
aI11
aI9
aI12
aI11
aI11
aI14
aI14
aI13
aI13
aI15
aI13
aI18
aI19
aI18
aI13
aI16
aI18
aI15
aI16
aI18
aI16
aI13
aI14
aI14
aI14
aI16
aI19
aI10
aI13
aI9
aI15
aI15
aI14
aI13
aI14
aI18
aI16
aI14
aI17
aI13
aI15
aI15
aI17
aI18
aI11
a(lp23
I139
aI120
aI116
aI119
aI123
aI133
aI125
aI127
aI116
aI111
aI107
aI112
aI119
aI116
aI113
aI114
aI125
aI120
aI103
aI111
aI112
aI105
aI104
aI110
aI95
aI104
aI98
aI100
aI113
aI97
aI99
aI93
aI93
aI91
aI102
aI93
aI94
aI88
aI89
aI85
aI89
aI93
aI88
aI92
aI83
aI82
aI70
aI71
aI79
aI66
aI70
aI67
aI85
aI73
aI84
aI72
aI75
aI74
aI77
aI66
aI64
aI66
aI71
aI65
aI72
aI74
aI58
aI69
aI57
aI54
aI50
aI60
aI56
aI57
aI52
aI61
aI55
aI60
aI52
aI59
aI44
aI47
aI52
aI52
aI43
aI54
aI50
aI45
aI50
aI42
aI43
aI42
aI42
aI42
aI37
aI35
aI40
aI39
aI41
aI31
aI34
aI38
aI38
aI39
aI31
aI38
aI33
aI31
aI31
aI30
aI24
aI31
aI28
aI32
aI26
aI30
aI32
aI27
aI29
aI30
aI29
aI29
aI32
aI30
aI26
aI21
aI21
aI22
aI24
aI29
aI28
aI23
aI22
aI23
aI20
aI23
aI24
aI29
aI21
aI20
aI19
aI14
aI17
aI17
aI21
aI24
aI23
aI11
aI17
aI18
aI24
aI24
aI21
aI18
aI17
aI14
aI19
aI17
aI19
aI19
aI20
aI19
aI19
aI24
aI22
aI17
aI10
aI15
aI12
aI12
aI14
aI12
aI12
aI14
aI12
aI18
aI12
aI14
aI13
aI13
aI11
aI14
aI8
aI16
atp24
sS'BATCH1_XPWithGlucose_R2'
p25
((lp26
I20
aI21
aI23
aI17
aI22
aI17
aI22
aI21
aI20
aI18
aI21
aI20
aI18
aI19
aI29
aI19
aI24
aI19
aI29
aI26
aI21
aI18
aI16
aI24
aI22
aI23
aI22
aI28
aI26
aI14
aI15
aI21
aI12
aI16
aI21
a(lp27
I86
aI89
aI89
aI94
aI94
aI94
aI92
aI101
aI95
aI86
aI99
aI77
aI81
aI87
aI90
aI91
aI94
aI88
aI92
aI91
aI91
aI87
aI78
aI80
aI84
aI79
aI78
aI74
aI82
aI79
aI66
aI70
aI72
aI78
aI67
atp28
sS'BATCH1_XPWithGlucose_R1'
p29
((lp30
I7
aI6
aI5
aI3
aI10
aI7
aI7
aI4
aI6
aI4
aI6
aI4
aI4
aI4
aI6
aI4
aI5
aI7
aI8
aI8
aI6
aI11
aI4
aI6
aI3
aI4
aI4
aI7
aI7
aI4
aI8
aI7
aI4
aI7
aI2
aI5
aI4
aI3
aI5
aI2
aI2
aI4
aI0
aI6
aI4
aI7
aI6
aI3
aI3
aI2
aI3
aI1
aI0
aI5
aI5
aI6
aI5
aI1
aI7
aI4
aI8
aI3
aI3
aI19
a(lp31
I322
aI302
aI312
aI318
aI296
aI312
aI323
aI319
aI325
aI329
aI319
aI338
aI307
aI307
aI321
aI316
aI299
aI315
aI321
aI314
aI306
aI312
aI305
aI328
aI305
aI324
aI325
aI319
aI315
aI309
aI316
aI315
aI327
aI306
aI310
aI303
aI322
aI295
aI297
aI317
aI330
aI324
aI320
aI322
aI316
aI326
aI323
aI304
aI310
aI305
aI319
aI310
aI324
aI317
aI313
aI305
aI312
aI313
aI294
aI299
aI291
aI313
aI293
aI222
atp32
sS'BATCH3_XP_R3'
p33
((lp34
I16
aI15
aI14
aI18
aI13
aI13
aI15
aI11
aI14
aI11
aI10
aI9
aI11
aI12
aI12
aI13
aI14
aI14
aI9
aI9
aI13
aI10
aI9
aI13
aI9
aI12
aI12
aI13
aI14
aI15
aI14
aI11
aI10
aI10
aI11
aI9
aI13
aI12
aI13
aI14
aI15
aI16
aI20
aI19
aI21
aI17
aI20
aI21
aI19
aI17
aI13
aI17
aI11
aI12
aI10
aI7
aI11
aI9
aI9
aI9
aI11
aI10
aI10
aI12
aI12
aI9
aI11
aI12
aI8
aI10
aI12
aI9
aI10
aI14
aI15
aI14
aI12
aI16
aI16
aI19
aI16
aI15
aI12
aI17
aI9
aI13
aI17
aI16
aI12
aI15
aI15
aI14
aI11
aI12
aI14
aI12
aI11
aI12
aI9
aI12
aI11
aI8
aI7
aI10
aI5
aI8
aI12
aI11
aI10
aI13
aI14
aI16
aI15
aI10
aI14
aI13
aI17
aI17
aI20
aI15
aI15
aI16
aI17
aI14
aI16
aI14
aI12
aI16
aI12
aI14
aI12
aI11
aI15
aI17
aI13
aI13
aI17
aI14
aI15
aI17
aI18
aI17
aI17
aI17
aI14
aI17
aI15
aI12
aI16
aI14
aI12
aI15
aI19
aI15
aI13
aI13
aI13
aI11
aI13
aI12
aI12
aI16
aI13
aI10
aI13
aI14
aI10
aI10
aI16
aI10
aI12
aI15
aI14
aI13
aI13
aI15
aI8
aI9
aI11
aI9
aI12
aI10
aI11
aI10
aI8
aI5
aI11
aI11
aI11
aI7
aI9
aI9
aI11
aI9
aI11
aI11
aI11
aI14
aI12
aI18
aI17
aI15
aI13
aI11
aI12
aI14
aI10
aI9
aI9
aI10
aI10
aI11
aI10
aI15
aI13
aI13
aI10
aI23
a(lp35
I20
aI22
aI22
aI18
aI21
aI27
aI25
aI26
aI25
aI20
aI22
aI18
aI21
aI16
aI27
aI21
aI25
aI23
aI21
aI21
aI21
aI15
aI17
aI23
aI19
aI19
aI24
aI14
aI22
aI20
aI18
aI22
aI20
aI20
aI17
aI20
aI18
aI17
aI18
aI18
aI26
aI25
aI26
aI21
aI19
aI22
aI20
aI19
aI16
aI21
aI21
aI22
aI16
aI20
aI16
aI12
aI18
aI14
aI16
aI18
aI18
aI18
aI16
aI14
aI12
aI17
aI21
aI17
aI12
aI21
aI12
aI18
aI19
aI16
aI17
aI18
aI15
aI16
aI20
aI25
aI18
aI14
aI17
aI19
aI20
aI19
aI19
aI19
aI17
aI22
aI17
aI17
aI19
aI17
aI15
aI15
aI16
aI18
aI16
aI17
aI13
aI16
aI15
aI13
aI13
aI11
aI19
aI24
aI17
aI22
aI23
aI26
aI15
aI16
aI20
aI15
aI20
aI22
aI19
aI20
aI21
aI19
aI20
aI23
aI17
aI18
aI20
aI18
aI13
aI18
aI18
aI15
aI20
aI16
aI19
aI23
aI17
aI18
aI21
aI24
aI19
aI19
aI24
aI24
aI21
aI24
aI23
aI18
aI24
aI17
aI23
aI18
aI13
aI17
aI21
aI16
aI18
aI14
aI18
aI17
aI15
aI13
aI17
aI16
aI13
aI16
aI12
aI11
aI10
aI13
aI15
aI14
aI14
aI14
aI9
aI15
aI11
aI16
aI15
aI12
aI16
aI17
aI16
aI16
aI15
aI14
aI12
aI14
aI12
aI12
aI16
aI14
aI13
aI15
aI9
aI18
aI18
aI23
aI20
aI22
aI17
aI19
aI19
aI16
aI17
aI8
aI14
aI13
aI12
aI15
aI13
aI14
aI15
aI16
aI16
aI13
aI18
aI18
atp36
sS'BATCH3_XP_R2'
p37
((lp38
I15
aI18
aI22
aI16
aI16
aI15
aI12
aI11
aI13
aI11
aI13
aI13
aI11
aI13
aI14
aI14
aI17
aI16
aI14
aI16
aI15
aI13
aI8
aI10
aI16
aI7
aI12
aI11
aI11
aI13
aI15
aI16
aI15
aI15
aI13
aI14
aI12
aI14
aI13
aI12
aI13
aI15
aI14
aI14
aI14
aI18
aI15
aI14
aI18
aI12
aI13
aI14
aI16
aI9
aI12
aI8
aI8
aI11
aI11
aI10
aI12
aI14
aI9
aI9
aI10
aI7
aI11
aI8
aI10
aI10
aI11
aI13
aI14
aI11
aI9
aI12
aI13
aI13
aI13
aI11
aI12
aI13
aI11
aI13
aI11
aI14
aI11
aI15
aI19
aI15
aI15
aI13
aI14
aI14
aI11
aI15
aI14
aI16
aI16
aI16
aI13
aI14
aI10
aI10
aI9
aI13
aI14
aI12
aI10
aI13
aI13
aI9
aI7
aI7
aI8
aI10
aI9
aI10
aI9
aI10
aI12
aI9
aI11
aI10
aI10
aI7
aI16
aI6
aI9
aI11
aI13
aI12
aI16
aI11
aI11
aI12
aI11
aI14
aI12
aI13
aI14
aI15
aI8
aI15
aI11
aI11
aI14
aI10
aI13
aI13
aI13
aI17
aI13
aI15
aI15
aI13
aI12
aI15
aI14
aI11
aI14
aI14
aI8
aI10
aI12
aI14
aI8
aI14
aI13
aI17
aI11
aI16
aI11
aI10
aI16
aI13
aI11
aI11
aI19
a(lp39
I18
aI19
aI24
aI16
aI18
aI18
aI15
aI12
aI14
aI17
aI15
aI14
aI13
aI14
aI17
aI18
aI17
aI16
aI19
aI18
aI20
aI21
aI17
aI17
aI21
aI16
aI21
aI17
aI17
aI15
aI15
aI17
aI20
aI25
aI18
aI21
aI17
aI14
aI21
aI15
aI15
aI20
aI19
aI23
aI23
aI24
aI21
aI18
aI20
aI15
aI15
aI18
aI20
aI14
aI17
aI16
aI13
aI14
aI13
aI11
aI14
aI15
aI19
aI14
aI13
aI9
aI10
aI5
aI12
aI15
aI11
aI13
aI17
aI15
aI15
aI17
aI21
aI15
aI19
aI20
aI22
aI18
aI16
aI20
aI24
aI17
aI18
aI13
aI19
aI21
aI19
aI16
aI18
aI17
aI15
aI18
aI19
aI18
aI19
aI15
aI16
aI12
aI20
aI19
aI14
aI17
aI14
aI12
aI10
aI16
aI12
aI14
aI11
aI11
aI18
aI16
aI11
aI12
aI20
aI14
aI17
aI13
aI14
aI14
aI13
aI11
aI16
aI19
aI16
aI20
aI17
aI14
aI16
aI15
aI17
aI12
aI14
aI14
aI15
aI20
aI16
aI16
aI16
aI19
aI18
aI17
aI15
aI14
aI19
aI14
aI19
aI16
aI15
aI15
aI14
aI13
aI15
aI17
aI12
aI16
aI15
aI12
aI13
aI15
aI15
aI11
aI14
aI17
aI13
aI14
aI24
aI18
aI16
aI15
aI15
aI20
aI16
aI20
aI20
atp40
sS'BATCH3_XP_R1'
p41
((lp42
I10
aI16
aI12
aI14
aI15
aI12
aI13
aI17
aI20
aI13
aI16
aI13
aI14
aI15
aI14
aI13
aI13
aI18
aI20
aI17
aI16
aI17
aI18
aI15
aI18
aI16
aI14
aI14
aI18
aI12
aI13
aI15
aI13
aI12
aI20
aI14
aI14
aI13
aI12
aI12
aI14
aI12
aI15
aI12
aI14
aI14
aI12
aI12
aI12
aI12
aI13
aI13
aI18
aI15
aI12
aI16
aI10
aI13
aI8
aI11
aI13
aI13
aI9
aI10
aI11
aI13
aI11
aI14
aI10
aI12
aI12
aI14
aI13
aI12
aI11
aI13
aI10
aI10
aI10
aI11
aI13
aI11
aI11
aI9
aI10
aI11
aI12
aI9
aI14
aI10
aI11
aI7
aI9
aI8
aI7
aI10
aI11
aI12
aI9
aI11
aI11
aI8
aI9
aI11
aI5
aI8
aI9
aI7
aI8
aI10
aI8
aI7
aI12
aI9
aI9
aI11
aI10
aI11
aI13
aI11
aI13
aI11
aI13
aI9
aI9
aI13
aI11
aI12
aI12
aI11
aI13
aI9
aI9
aI10
aI15
aI13
aI14
aI14
aI13
aI14
aI16
aI10
aI12
aI9
aI14
aI8
aI10
aI10
aI12
aI10
aI11
aI10
aI9
aI9
aI14
aI11
aI12
aI11
aI11
aI12
aI15
aI12
aI14
aI9
aI11
aI7
aI11
aI11
aI10
aI12
aI18
aI10
aI13
aI9
aI7
aI9
aI10
aI13
aI11
aI11
aI12
aI14
aI12
aI12
aI10
aI9
aI12
aI10
aI8
aI10
aI14
aI15
aI12
aI9
aI13
aI14
aI13
aI15
aI13
aI14
aI13
aI10
aI10
aI14
aI8
aI10
aI13
aI10
aI8
aI25
a(lp43
I8
aI11
aI11
aI8
aI9
aI9
aI11
aI9
aI5
aI10
aI7
aI10
aI7
aI9
aI7
aI8
aI10
aI11
aI13
aI10
aI12
aI10
aI12
aI11
aI11
aI12
aI14
aI10
aI12
aI13
aI10
aI7
aI8
aI9
aI15
aI10
aI9
aI10
aI9
aI9
aI10
aI9
aI11
aI10
aI10
aI7
aI11
aI10
aI10
aI13
aI11
aI13
aI17
aI15
aI9
aI9
aI7
aI3
aI5
aI5
aI8
aI6
aI7
aI5
aI6
aI6
aI8
aI5
aI6
aI6
aI11
aI8
aI13
aI9
aI10
aI10
aI9
aI11
aI8
aI11
aI9
aI9
aI9
aI9
aI9
aI11
aI9
aI8
aI11
aI8
aI9
aI7
aI5
aI6
aI5
aI7
aI9
aI8
aI6
aI6
aI8
aI5
aI9
aI7
aI8
aI5
aI5
aI4
aI7
aI8
aI7
aI5
aI7
aI7
aI11
aI9
aI10
aI8
aI9
aI8
aI11
aI10
aI9
aI7
aI7
aI10
aI11
aI12
aI11
aI11
aI8
aI12
aI12
aI11
aI11
aI12
aI11
aI9
aI13
aI14
aI11
aI10
aI10
aI8
aI12
aI11
aI8
aI10
aI6
aI7
aI9
aI8
aI10
aI7
aI8
aI10
aI7
aI11
aI7
aI12
aI9
aI10
aI7
aI9
aI8
aI8
aI8
aI7
aI8
aI9
aI10
aI10
aI8
aI9
aI6
aI7
aI5
aI10
aI9
aI10
aI16
aI10
aI9
aI6
aI7
aI6
aI11
aI8
aI9
aI5
aI7
aI9
aI8
aI12
aI10
aI12
aI10
aI13
aI12
aI12
aI10
aI9
aI9
aI12
aI10
aI11
aI10
aI11
aI11
aI20
atp44
sS'BATCH1_XPLGlucose_R1'
p45
((lp46
I0
aI0
aI0
aI0
aI0
aI0
aI0
aI0
aI0
aI0
aI0
aI0
aI0
aI0
aI0
aI0
aI0
aI0
aI0
aI0
aI0
aI0
aI0
aI0
aI0
aI0
aI0
aI0
aI0
aI0
aI0
aI0
aI0
aI0
aI0
aI0
aI0
aI0
aI0
aI0
aI0
aI0
aI0
aI0
aI0
aI0
aI0
aI0
aI0
aI0
aI0
aI0
aI0
aI0
aI0
aI0
aI0
aI0
aI0
aI0
aI0
aI0
aI0
aI0
aI0
aI0
aI0
aI0
aI0
aI0
aI0
aI0
aI0
aI0
aI0
aI0
aI0
aI0
aI0
aI0
aI0
aI0
aI0
aI0
aI0
aI0
aI0
aI0
aI0
aI0
aI0
aI0
aI0
aI0
aI0
aI0
aI0
aI0
aI0
aI0
aI0
aI0
aI0
aI0
aI0
aI0
aI0
aI0
aI0
aI0
aI0
aI0
aI0
aI0
aI0
aI0
aI0
aI0
aI0
aI0
aI0
aI0
aI0
aI0
aI0
aI0
aI0
aI0
aI0
aI0
aI0
aI0
aI0
aI0
aI0
aI0
aI0
aI0
aI0
aI0
aI0
aI0
aI0
aI0
aI0
aI0
aI0
aI0
aI0
aI0
aI0
aI0
aI0
aI0
aI0
aI0
aI0
aI0
aI0
aI0
aI0
aI0
aI0
aI0
aI0
aI0
aI0
aI0
aI0
aI0
aI0
aI0
aI0
aI0
aI0
aI0
aI0
aI0
aI0
aI0
aI0
aI0
aI0
aI0
aI0
aI0
aI0
aI0
aI0
aI0
aI0
aI0
aI0
aI0
aI0
aI0
aI0
aI0
aI0
aI0
aI0
aI0
aI0
aI0
aI0
aI0
aI0
aI0
aI0
aI0
aI0
aI0
aI0
aI0
aI0
aI0
aI0
aI0
aI0
aI0
aI0
aI0
aI0
aI0
aI0
aI0
aI0
aI0
aI0
aI0
aI4
a(lp47
I9
aI11
aI10
aI8
aI10
aI11
aI6
aI8
aI7
aI9
aI7
aI9
aI7
aI9
aI13
aI10
aI11
aI11
aI13
aI10
aI9
aI11
aI11
aI12
aI11
aI14
aI11
aI12
aI9
aI8
aI8
aI10
aI10
aI14
aI12
aI9
aI18
aI17
aI15
aI13
aI12
aI13
aI11
aI12
aI14
aI14
aI13
aI8
aI10
aI10
aI11
aI11
aI11
aI9
aI11
aI13
aI11
aI11
aI11
aI10
aI13
aI10
aI16
aI14
aI10
aI13
aI13
aI12
aI10
aI10
aI13
aI11
aI12
aI12
aI15
aI12
aI14
aI14
aI14
aI12
aI10
aI15
aI14
aI15
aI13
aI14
aI14
aI13
aI11
aI9
aI10
aI10
aI10
aI13
aI7
aI11
aI11
aI9
aI11
aI12
aI15
aI14
aI15
aI16
aI16
aI17
aI14
aI12
aI15
aI16
aI14
aI12
aI12
aI13
aI11
aI12
aI11
aI12
aI13
aI13
aI12
aI15
aI15
aI12
aI10
aI15
aI11
aI15
aI11
aI10
aI8
aI7
aI11
aI9
aI8
aI9
aI7
aI7
aI13
aI14
aI10
aI15
aI13
aI11
aI14
aI13
aI16
aI14
aI14
aI9
aI11
aI13
aI13
aI12
aI11
aI13
aI12
aI10
aI12
aI9
aI9
aI9
aI10
aI11
aI11
aI10
aI11
aI10
aI10
aI10
aI9
aI12
aI10
aI10
aI11
aI10
aI13
aI12
aI11
aI8
aI10
aI8
aI7
aI7
aI7
aI9
aI9
aI10
aI11
aI11
aI11
aI10
aI9
aI12
aI12
aI12
aI12
aI11
aI12
aI12
aI12
aI10
aI12
aI9
aI12
aI10
aI10
aI10
aI8
aI12
aI13
aI12
aI10
aI11
aI11
aI12
aI9
aI11
aI11
aI9
aI8
aI6
aI7
aI10
aI6
aI6
aI7
aI7
aI8
aI6
aI17
atp48
sS'BATCH2_XP_R1'
p49
((lp50
I4
aI6
aI7
aI5
aI6
aI6
aI3
aI8
aI6
aI4
aI6
aI6
aI6
aI4
aI5
aI4
aI4
aI4
aI4
aI8
aI4
aI4
aI2
aI4
aI5
aI5
aI6
aI4
aI3
aI3
aI2
aI3
aI3
aI2
aI3
aI3
aI2
aI2
aI3
aI3
aI4
aI4
aI5
aI4
aI4
aI2
aI3
aI2
aI3
aI2
aI3
aI3
aI3
aI3
aI3
aI1
aI2
aI3
aI2
aI3
aI3
aI5
aI6
aI3
aI3
aI2
aI4
aI2
aI0
aI3
aI3
aI3
aI5
aI4
aI6
aI4
aI7
aI5
aI7
aI5
aI7
aI6
aI8
aI5
aI5
aI5
aI5
aI5
aI6
aI6
aI5
aI8
aI6
aI7
aI10
aI10
aI6
aI5
aI5
aI5
aI6
aI6
aI7
aI7
aI7
aI4
aI4
aI2
aI3
aI4
aI6
aI3
aI6
aI6
aI6
aI4
aI4
aI6
aI5
aI1
aI2
aI5
aI5
aI4
aI4
aI7
aI7
aI5
aI3
aI7
aI5
aI4
aI4
aI4
aI6
aI7
aI7
aI4
aI5
aI4
aI3
aI3
aI4
aI2
aI4
aI2
aI4
aI3
aI5
aI4
aI2
aI3
aI3
aI2
aI3
aI2
aI3
aI5
aI6
aI5
aI4
aI4
aI3
aI4
aI4
aI2
aI1
aI3
aI5
aI7
aI5
aI7
aI6
aI7
aI6
aI9
aI8
aI8
aI7
aI7
aI3
aI4
aI3
aI5
aI5
aI7
aI8
aI6
aI3
aI3
aI5
aI5
aI6
aI4
aI7
aI4
aI5
aI2
aI3
aI4
aI4
aI4
aI4
aI1
aI2
aI3
aI3
aI4
aI3
aI6
aI6
aI4
aI3
aI3
aI3
aI3
aI4
aI4
aI5
aI4
aI4
aI2
aI1
aI0
aI4
aI5
aI5
aI4
aI4
aI4
aI3
aI5
aI5
aI5
aI2
aI1
aI2
aI2
aI4
aI3
aI3
aI2
aI2
aI3
aI2
aI2
aI2
aI2
aI4
aI2
aI2
aI2
aI2
aI2
aI3
aI2
aI3
aI3
aI2
aI2
aI1
aI2
aI1
aI1
aI2
aI3
aI3
aI1
aI2
aI2
aI2
aI1
aI2
aI1
aI1
aI1
aI2
aI2
aI2
aI2
aI1
aI1
aI1
aI0
aI1
aI2
aI0
aI3
aI4
aI2
aI2
aI3
aI1
aI1
aI1
aI0
aI1
aI1
aI0
aI2
aI0
aI2
aI4
aI2
aI5
aI5
aI1
aI5
aI4
aI4
aI3
aI3
aI4
aI2
aI3
aI2
aI4
aI4
aI4
aI3
aI4
aI5
aI4
aI3
aI4
aI4
aI5
aI2
aI3
aI4
aI2
aI3
aI3
aI4
aI4
aI5
aI3
aI3
aI2
aI3
aI2
aI2
aI0
aI1
aI0
aI2
aI0
aI1
aI1
aI3
aI3
aI2
aI2
aI1
aI0
aI2
aI3
aI2
aI2
aI2
aI1
aI1
aI1
aI2
aI2
aI1
aI3
aI1
aI2
aI4
aI0
aI1
aI0
aI1
aI0
aI1
aI2
aI1
aI0
aI1
aI2
aI2
aI1
aI1
aI1
aI1
aI0
aI0
aI0
aI1
aI0
aI0
aI3
aI4
aI3
aI3
aI1
aI2
aI2
aI3
aI2
aI3
aI3
aI2
aI4
aI6
aI4
aI4
aI4
aI3
aI3
aI1
aI1
aI3
aI2
aI2
aI2
aI2
aI3
aI2
aI2
aI2
aI3
aI2
aI1
aI2
aI3
aI1
aI2
aI2
aI3
aI2
aI2
aI3
aI2
aI2
aI2
aI2
aI2
aI3
aI3
aI2
aI3
aI3
aI3
aI3
aI2
aI3
aI2
aI3
aI3
aI1
aI0
aI2
aI2
aI0
aI2
aI2
aI2
aI3
aI3
aI3
aI4
aI3
aI3
aI2
aI3
aI2
aI3
aI3
aI5
aI3
aI3
aI3
aI3
aI1
aI2
aI2
aI3
aI2
aI3
aI2
aI3
aI3
aI3
aI5
aI5
aI2
aI2
aI3
aI3
aI2
aI3
aI3
aI3
aI3
aI3
aI5
aI5
aI6
aI4
aI2
aI4
aI4
aI3
aI4
aI5
aI5
aI2
aI3
aI4
aI2
aI3
aI2
aI4
aI4
aI4
aI2
aI4
aI3
aI2
aI3
aI2
aI2
aI1
aI1
aI1
aI2
aI1
aI2
aI2
aI1
aI2
aI0
aI1
aI1
aI1
aI1
aI2
aI3
aI2
aI2
aI3
aI4
aI4
aI2
aI2
aI3
aI4
aI4
aI3
aI4
aI5
aI3
aI3
aI2
aI6
aI2
aI3
aI4
aI2
aI6
aI5
aI4
aI5
aI3
aI3
aI5
aI1
aI2
aI3
aI2
aI2
aI3
aI3
aI3
aI4
aI3
aI5
aI3
aI1
aI2
aI3
aI3
aI1
aI1
aI4
aI2
aI3
aI3
aI4
aI4
aI2
aI2
aI2
aI1
aI3
aI1
aI1
aI2
aI1
aI3
aI3
aI3
aI2
aI2
aI2
aI4
aI3
aI1
aI3
aI2
aI1
aI0
aI1
aI1
aI1
a(lp51
I37
aI33
aI36
aI41
aI39
aI44
aI39
aI37
aI38
aI40
aI32
aI33
aI33
aI37
aI29
aI35
aI34
aI29
aI30
aI32
aI29
aI29
aI25
aI31
aI32
aI33
aI28
aI34
aI37
aI33
aI30
aI36
aI24
aI28
aI30
aI28
aI29
aI23
aI33
aI27
aI23
aI34
aI26
aI24
aI23
aI24
aI20
aI25
aI23
aI21
aI21
aI20
aI14
aI20
aI23
aI21
aI24
aI28
aI23
aI20
aI19
aI21
aI22
aI21
aI21
aI21
aI19
aI22
aI21
aI20
aI19
aI21
aI19
aI17
aI18
aI17
aI16
aI20
aI20
aI18
aI20
aI21
aI24
aI20
aI23
aI24
aI22
aI19
aI20
aI27
aI22
aI24
aI20
aI25
aI22
aI24
aI24
aI22
aI21
aI17
aI21
aI22
aI24
aI19
aI16
aI21
aI18
aI17
aI21
aI19
aI21
aI21
aI24
aI22
aI22
aI15
aI19
aI18
aI19
aI16
aI13
aI14
aI13
aI14
aI11
aI12
aI15
aI15
aI12
aI16
aI17
aI14
aI20
aI20
aI16
aI20
aI23
aI17
aI14
aI20
aI20
aI25
aI19
aI16
aI13
aI18
aI14
aI15
aI19
aI18
aI12
aI14
aI13
aI10
aI14
aI10
aI10
aI15
aI16
aI17
aI17
aI16
aI17
aI13
aI13
aI12
aI14
aI15
aI16
aI11
aI15
aI16
aI16
aI14
aI12
aI18
aI14
aI16
aI18
aI18
aI19
aI18
aI16
aI21
aI16
aI16
aI16
aI14
aI13
aI15
aI17
aI15
aI11
aI10
aI15
aI13
aI15
aI13
aI16
aI15
aI14
aI16
aI17
aI21
aI18
aI18
aI18
aI18
aI19
aI18
aI15
aI17
aI12
aI11
aI12
aI8
aI10
aI14
aI18
aI14
aI18
aI14
aI13
aI9
aI13
aI9
aI15
aI9
aI13
aI11
aI9
aI14
aI12
aI18
aI14
aI10
aI11
aI12
aI9
aI8
aI9
aI10
aI9
aI9
aI8
aI9
aI9
aI11
aI11
aI9
aI14
aI15
aI13
aI15
aI11
aI13
aI14
aI11
aI11
aI11
aI12
aI10
aI8
aI11
aI10
aI9
aI13
aI10
aI7
aI8
aI5
aI7
aI8
aI8
aI13
aI9
aI8
aI9
aI9
aI8
aI8
aI9
aI7
aI11
aI7
aI7
aI8
aI7
aI6
aI8
aI7
aI7
aI9
aI7
aI9
aI10
aI11
aI9
aI10
aI6
aI14
aI10
aI10
aI13
aI16
aI13
aI10
aI13
aI14
aI12
aI13
aI15
aI14
aI14
aI13
aI12
aI12
aI16
aI14
aI14
aI13
aI15
aI12
aI13
aI16
aI10
aI8
aI13
aI13
aI14
aI15
aI14
aI12
aI10
aI9
aI11
aI11
aI15
aI11
aI13
aI12
aI13
aI11
aI12
aI12
aI21
aI17
aI12
aI14
aI15
aI14
aI11
aI10
aI15
aI12
aI8
aI11
aI11
aI14
aI13
aI11
aI13
aI9
aI9
aI8
aI13
aI11
aI10
aI15
aI13
aI12
aI10
aI13
aI8
aI7
aI10
aI10
aI13
aI8
aI10
aI9
aI9
aI11
aI12
aI11
aI7
aI9
aI6
aI4
aI6
aI7
aI7
aI9
aI8
aI8
aI9
aI5
aI4
aI6
aI12
aI7
aI8
aI11
aI12
aI11
aI11
aI7
aI7
aI8
aI10
aI12
aI11
aI13
aI7
aI11
aI10
aI8
aI6
aI8
aI8
aI8
aI8
aI7
aI11
aI6
aI12
aI11
aI12
aI13
aI11
aI13
aI11
aI10
aI11
aI14
aI13
aI6
aI10
aI9
aI10
aI11
aI11
aI9
aI10
aI13
aI9
aI11
aI9
aI10
aI10
aI13
aI11
aI12
aI10
aI11
aI9
aI13
aI13
aI13
aI15
aI13
aI11
aI12
aI9
aI9
aI10
aI13
aI12
aI10
aI10
aI9
aI9
aI12
aI7
aI10
aI9
aI11
aI12
aI7
aI10
aI8
aI8
aI9
aI11
aI9
aI11
aI9
aI12
aI11
aI9
aI8
aI10
aI8
aI10
aI9
aI7
aI7
aI12
aI8
aI8
aI8
aI12
aI13
aI10
aI5
aI8
aI9
aI6
aI11
aI7
aI6
aI6
aI9
aI7
aI6
aI10
aI7
aI7
aI8
aI5
aI5
aI10
aI6
aI5
aI4
aI6
aI6
aI5
aI6
aI6
aI8
aI6
aI6
aI8
aI8
aI6
aI4
aI4
aI5
aI7
aI6
aI4
aI6
aI7
aI5
aI4
aI5
aI6
aI5
aI7
aI7
aI8
aI6
aI6
aI5
aI5
aI4
aI6
aI7
aI9
aI8
aI7
aI7
aI8
aI6
aI5
aI7
aI5
aI2
aI3
aI5
aI5
aI6
aI10
aI6
aI8
aI5
aI5
aI8
aI4
aI8
aI7
aI4
aI4
aI8
aI7
aI10
aI7
aI5
aI6
aI9
aI7
aI5
aI6
aI8
aI11
aI11
aI13
aI11
aI9
aI10
aI6
aI10
aI8
aI8
aI8
aI8
aI8
aI8
aI10
aI9
aI10
aI7
aI4
aI6
aI7
aI5
atp52
sS'BATCH3_XPDGAtpMgcl2WithHkAld_R1'
p53
((lp54
I19
aI23
aI17
aI11
aI15
aI18
aI17
aI16
aI19
aI16
aI16
aI15
aI15
aI27
aI9
aI8
aI15
aI14
aI11
aI6
aI9
aI10
aI9
aI13
aI7
aI11
aI8
aI9
aI8
aI11
aI13
aI6
aI10
aI6
aI8
aI10
aI12
aI9
aI9
aI8
aI8
aI16
aI9
aI11
aI13
aI7
aI11
aI14
aI11
aI12
aI11
aI11
aI14
aI16
aI14
aI9
aI12
aI10
aI16
aI13
aI14
aI12
aI11
aI12
aI14
aI14
aI10
aI13
aI10
aI9
aI20
aI17
aI10
aI14
aI12
aI12
aI11
aI11
aI13
aI11
aI8
aI8
aI5
aI10
aI6
aI9
aI10
aI12
aI10
aI11
aI10
aI7
aI10
aI14
aI9
aI9
aI8
aI11
aI11
aI3
aI8
aI4
aI10
aI7
aI4
aI9
aI6
aI6
aI9
aI12
aI7
aI7
aI7
aI13
aI10
aI10
aI8
aI9
aI5
aI14
aI6
aI9
aI6
aI3
aI13
aI8
aI10
aI9
aI7
aI6
aI9
aI17
a(lp55
I4
aI1
aI2
aI1
aI4
aI4
aI2
aI4
aI3
aI4
aI4
aI4
aI6
aI4
aI4
aI7
aI4
aI5
aI3
aI4
aI4
aI6
aI5
aI4
aI6
aI4
aI3
aI3
aI3
aI6
aI5
aI6
aI4
aI4
aI4
aI4
aI4
aI1
aI2
aI4
aI7
aI3
aI4
aI5
aI4
aI2
aI4
aI2
aI1
aI7
aI2
aI2
aI6
aI4
aI5
aI4
aI4
aI4
aI5
aI5
aI6
aI5
aI7
aI8
aI5
aI5
aI9
aI9
aI6
aI3
aI4
aI8
aI7
aI3
aI2
aI6
aI6
aI4
aI2
aI5
aI6
aI5
aI6
aI2
aI2
aI3
aI5
aI3
aI5
aI9
aI5
aI5
aI0
aI3
aI6
aI3
aI4
aI3
aI5
aI5
aI2
aI4
aI5
aI6
aI3
aI4
aI3
aI6
aI3
aI3
aI2
aI7
aI2
aI4
aI2
aI4
aI5
aI3
aI4
aI1
aI4
aI4
aI5
aI6
aI4
aI3
aI3
aI4
aI5
aI6
aI5
aI21
atp56
sS'BATCH3_XPDGAtpMgcl2WithHkAld_R2'
p57
((lp58
I11
aI12
aI18
aI16
aI13
aI11
aI19
aI9
aI5
aI16
aI12
aI9
aI9
aI14
aI10
aI11
aI16
aI17
aI13
aI17
aI12
aI8
aI14
aI12
aI13
aI18
aI9
aI13
aI16
aI15
aI11
aI10
aI16
aI13
aI15
aI17
aI17
aI14
aI16
aI10
aI11
aI13
aI9
aI10
aI16
aI13
aI11
aI15
aI10
aI9
aI11
aI13
aI13
aI9
aI13
aI10
aI10
aI18
aI10
aI17
aI15
aI16
aI12
aI13
aI11
aI9
aI8
aI11
aI15
aI17
aI12
aI14
aI19
aI13
aI21
aI13
aI11
aI11
aI15
aI13
aI11
aI14
aI17
aI13
aI19
aI9
aI9
aI24
a(lp59
I7
aI4
aI9
aI5
aI8
aI4
aI6
aI4
aI5
aI8
aI4
aI6
aI9
aI7
aI4
aI4
aI3
aI6
aI6
aI4
aI6
aI2
aI3
aI4
aI5
aI7
aI3
aI5
aI7
aI2
aI4
aI4
aI6
aI3
aI3
aI7
aI7
aI8
aI8
aI6
aI4
aI6
aI1
aI4
aI5
aI5
aI6
aI1
aI3
aI3
aI6
aI5
aI4
aI4
aI3
aI6
aI3
aI5
aI7
aI7
aI6
aI8
aI6
aI6
aI5
aI7
aI6
aI4
aI5
aI9
aI6
aI4
aI4
aI7
aI7
aI4
aI4
aI4
aI3
aI8
aI6
aI9
aI3
aI6
aI8
aI8
aI8
aI19
atp60
s.